	.file	"main.cpp"
	.text
.Ltext0:
	.file 0 "/home/mathieu/CppUebungen/ue7" "main.cpp"
	.section	.text._ZNSt11char_traitsIcE6lengthEPKc,"axG",@progbits,_ZNSt11char_traitsIcE6lengthEPKc,comdat
	.weak	_ZNSt11char_traitsIcE6lengthEPKc
	.type	_ZNSt11char_traitsIcE6lengthEPKc, @function
_ZNSt11char_traitsIcE6lengthEPKc:
.LFB382:
	.file 1 "/usr/include/c++/11/bits/char_traits.h"
	.loc 1 393 7
	.cfi_startproc
	endbr64
	pushq	%rbp
	.cfi_def_cfa_offset 16
	.cfi_offset 6, -16
	movq	%rsp, %rbp
	.cfi_def_cfa_register 6
	subq	$32, %rsp
	movq	%rdi, -24(%rbp)
	movq	-24(%rbp), %rax
	movq	%rax, -8(%rbp)
.LBB4:
.LBB5:
	.loc 1 290 46
	movl	$0, %eax
.LBE5:
.LBE4:
	.loc 1 396 2
	testb	%al, %al
	je	.L3
	.loc 1 397 52
	movq	-24(%rbp), %rax
	movq	%rax, %rdi
	call	_ZN9__gnu_cxx11char_traitsIcE6lengthEPKc
	.loc 1 397 56
	jmp	.L4
.L3:
	.loc 1 399 25
	movq	-24(%rbp), %rax
	movq	%rax, %rdi
	call	strlen@PLT
	.loc 1 399 29
	nop
.L4:
	.loc 1 400 7
	leave
	.cfi_def_cfa 7, 8
	ret
	.cfi_endproc
.LFE382:
	.size	_ZNSt11char_traitsIcE6lengthEPKc, .-_ZNSt11char_traitsIcE6lengthEPKc
	.section	.text._ZN5LosseC2ENSt7__cxx1112basic_stringIcSt11char_traitsIcESaIcEEE,"axG",@progbits,_ZN5LosseC5ENSt7__cxx1112basic_stringIcSt11char_traitsIcESaIcEEE,comdat
	.align 2
	.weak	_ZN5LosseC2ENSt7__cxx1112basic_stringIcSt11char_traitsIcESaIcEEE
	.type	_ZN5LosseC2ENSt7__cxx1112basic_stringIcSt11char_traitsIcESaIcEEE, @function
_ZN5LosseC2ENSt7__cxx1112basic_stringIcSt11char_traitsIcESaIcEEE:
.LFB1161:
	.file 2 "Losse.h"
	.loc 2 10 5
	.cfi_startproc
	endbr64
	pushq	%rbp
	.cfi_def_cfa_offset 16
	.cfi_offset 6, -16
	movq	%rsp, %rbp
	.cfi_def_cfa_register 6
	subq	$16, %rsp
	movq	%rdi, -8(%rbp)
	movq	%rsi, -16(%rbp)
.LBB6:
	.loc 2 10 80
	leaq	16+_ZTV5Losse(%rip), %rdx
	movq	-8(%rbp), %rax
	movq	%rdx, (%rax)
	.loc 2 10 63
	movl	_ZN5Losse10nextLosNumE(%rip), %edx
	movq	-8(%rbp), %rax
	movl	%edx, 8(%rax)
	.loc 2 10 39
	movq	-8(%rbp), %rax
	leaq	16(%rax), %rdx
	movq	-16(%rbp), %rax
	movq	%rax, %rsi
	movq	%rdx, %rdi
	call	_ZNSt7__cxx1112basic_stringIcSt11char_traitsIcESaIcEEC1ERKS4_@PLT
	.loc 2 11 17
	movl	_ZN5Losse10nextLosNumE(%rip), %eax
	addl	$1, %eax
	movl	%eax, _ZN5Losse10nextLosNumE(%rip)
.LBE6:
	.loc 2 12 5
	nop
	leave
	.cfi_def_cfa 7, 8
	ret
	.cfi_endproc
.LFE1161:
	.size	_ZN5LosseC2ENSt7__cxx1112basic_stringIcSt11char_traitsIcESaIcEEE, .-_ZN5LosseC2ENSt7__cxx1112basic_stringIcSt11char_traitsIcESaIcEEE
	.weak	_ZN5LosseC1ENSt7__cxx1112basic_stringIcSt11char_traitsIcESaIcEEE
	.set	_ZN5LosseC1ENSt7__cxx1112basic_stringIcSt11char_traitsIcESaIcEEE,_ZN5LosseC2ENSt7__cxx1112basic_stringIcSt11char_traitsIcESaIcEEE
	.section	.text._ZN8numLosseC2ENSt7__cxx1112basic_stringIcSt11char_traitsIcESaIcEEEi,"axG",@progbits,_ZN8numLosseC5ENSt7__cxx1112basic_stringIcSt11char_traitsIcESaIcEEEi,comdat
	.align 2
	.weak	_ZN8numLosseC2ENSt7__cxx1112basic_stringIcSt11char_traitsIcESaIcEEEi
	.type	_ZN8numLosseC2ENSt7__cxx1112basic_stringIcSt11char_traitsIcESaIcEEEi, @function
_ZN8numLosseC2ENSt7__cxx1112basic_stringIcSt11char_traitsIcESaIcEEEi:
.LFB1167:
	.file 3 "numberLosse.h"
	.loc 3 14 5
	.cfi_startproc
	.cfi_personality 0x9b,DW.ref.__gxx_personality_v0
	.cfi_lsda 0x1b,.LLSDA1167
	endbr64
	pushq	%rbp
	.cfi_def_cfa_offset 16
	.cfi_offset 6, -16
	movq	%rsp, %rbp
	.cfi_def_cfa_register 6
	pushq	%rbx
	subq	$88, %rsp
	.cfi_offset 3, -24
	movq	%rdi, -72(%rbp)
	movq	%rsi, -80(%rbp)
	movl	%edx, -84(%rbp)
	.loc 3 14 5
	movq	%fs:40, %rax
	movq	%rax, -24(%rbp)
	xorl	%eax, %eax
.LBB7:
	.loc 3 14 90
	movq	-72(%rbp), %rbx
	movq	-80(%rbp), %rdx
	leaq	-64(%rbp), %rax
	movq	%rdx, %rsi
	movq	%rax, %rdi
.LEHB0:
	call	_ZNSt7__cxx1112basic_stringIcSt11char_traitsIcESaIcEEC1ERKS4_@PLT
.LEHE0:
	leaq	-64(%rbp), %rax
	movq	%rax, %rsi
	movq	%rbx, %rdi
.LEHB1:
	call	_ZN5LosseC2ENSt7__cxx1112basic_stringIcSt11char_traitsIcESaIcEEE
.LEHE1:
	.loc 3 14 90 is_stmt 0 discriminator 2
	leaq	-64(%rbp), %rax
	movq	%rax, %rdi
	call	_ZNSt7__cxx1112basic_stringIcSt11char_traitsIcESaIcEED1Ev@PLT
	leaq	16+_ZTV8numLosse(%rip), %rdx
	movq	-72(%rbp), %rax
	movq	%rdx, (%rax)
	movq	-72(%rbp), %rax
	movl	$7, 48(%rax)
	movq	-72(%rbp), %rax
	movl	$9999999, 52(%rax)
	.loc 3 14 73 is_stmt 1 discriminator 2
	movq	-72(%rbp), %rax
	movl	-84(%rbp), %edx
	movl	%edx, 56(%rax)
.LBE7:
	.loc 3 14 92 discriminator 2
	nop
	movq	-24(%rbp), %rax
	subq	%fs:40, %rax
	je	.L8
	jmp	.L10
.L9:
	endbr64
.LBB8:
	.loc 3 14 90
	movq	%rax, %rbx
	leaq	-64(%rbp), %rax
	movq	%rax, %rdi
	call	_ZNSt7__cxx1112basic_stringIcSt11char_traitsIcESaIcEED1Ev@PLT
	movq	%rbx, %rax
	movq	%rax, %rdi
.LEHB2:
	call	_Unwind_Resume@PLT
.LEHE2:
.L10:
.LBE8:
	.loc 3 14 92
	call	__stack_chk_fail@PLT
.L8:
	movq	-8(%rbp), %rbx
	leave
	.cfi_def_cfa 7, 8
	ret
	.cfi_endproc
.LFE1167:
	.globl	__gxx_personality_v0
	.section	.gcc_except_table._ZN8numLosseC2ENSt7__cxx1112basic_stringIcSt11char_traitsIcESaIcEEEi,"aG",@progbits,_ZN8numLosseC5ENSt7__cxx1112basic_stringIcSt11char_traitsIcESaIcEEEi,comdat
.LLSDA1167:
	.byte	0xff
	.byte	0xff
	.byte	0x1
	.uleb128 .LLSDACSE1167-.LLSDACSB1167
.LLSDACSB1167:
	.uleb128 .LEHB0-.LFB1167
	.uleb128 .LEHE0-.LEHB0
	.uleb128 0
	.uleb128 0
	.uleb128 .LEHB1-.LFB1167
	.uleb128 .LEHE1-.LEHB1
	.uleb128 .L9-.LFB1167
	.uleb128 0
	.uleb128 .LEHB2-.LFB1167
	.uleb128 .LEHE2-.LEHB2
	.uleb128 0
	.uleb128 0
.LLSDACSE1167:
	.section	.text._ZN8numLosseC2ENSt7__cxx1112basic_stringIcSt11char_traitsIcESaIcEEEi,"axG",@progbits,_ZN8numLosseC5ENSt7__cxx1112basic_stringIcSt11char_traitsIcESaIcEEEi,comdat
	.size	_ZN8numLosseC2ENSt7__cxx1112basic_stringIcSt11char_traitsIcESaIcEEEi, .-_ZN8numLosseC2ENSt7__cxx1112basic_stringIcSt11char_traitsIcESaIcEEEi
	.weak	_ZN8numLosseC1ENSt7__cxx1112basic_stringIcSt11char_traitsIcESaIcEEEi
	.set	_ZN8numLosseC1ENSt7__cxx1112basic_stringIcSt11char_traitsIcESaIcEEEi,_ZN8numLosseC2ENSt7__cxx1112basic_stringIcSt11char_traitsIcESaIcEEEi
	.section	.text._ZN8numLosse8wineRangEv,"axG",@progbits,_ZN8numLosse8wineRangEv,comdat
	.align 2
	.weak	_ZN8numLosse8wineRangEv
	.type	_ZN8numLosse8wineRangEv, @function
_ZN8numLosse8wineRangEv:
.LFB1170:
	.loc 3 20 17
	.cfi_startproc
	endbr64
	pushq	%rbp
	.cfi_def_cfa_offset 16
	.cfi_offset 6, -16
	movq	%rsp, %rbp
	.cfi_def_cfa_register 6
	movq	%rdi, -24(%rbp)
	.loc 3 21 11
	movl	$0, -16(%rbp)
.LBB9:
	.loc 3 22 15
	movq	-24(%rbp), %rax
	movl	48(%rax), %eax
	movl	%eax, -12(%rbp)
	.loc 3 22 29
	movq	-24(%rbp), %rax
	movl	56(%rax), %eax
	movl	%eax, -8(%rbp)
	.loc 3 22 42
	movl	_ZN8numLosse6winNumE(%rip), %eax
	movl	%eax, -4(%rbp)
	.loc 3 22 7
	jmp	.L12
.L14:
	.loc 3 23 13
	movl	-8(%rbp), %edx
	movslq	%edx, %rax
	imulq	$1717986919, %rax, %rax
	shrq	$32, %rax
	sarl	$2, %eax
	movl	%edx, %esi
	sarl	$31, %esi
	subl	%esi, %eax
	movl	%eax, %ecx
	movl	%ecx, %eax
	sall	$2, %eax
	addl	%ecx, %eax
	addl	%eax, %eax
	movl	%edx, %ecx
	subl	%eax, %ecx
	.loc 3 23 19
	movl	-4(%rbp), %esi
	movslq	%esi, %rax
	imulq	$1717986919, %rax, %rax
	shrq	$32, %rax
	sarl	$2, %eax
	movl	%esi, %edi
	sarl	$31, %edi
	subl	%edi, %eax
	movl	%eax, %edx
	movl	%edx, %eax
	sall	$2, %eax
	addl	%edx, %eax
	addl	%eax, %eax
	subl	%eax, %esi
	movl	%esi, %edx
	.loc 3 23 9
	cmpl	%edx, %ecx
	jne	.L13
	.loc 3 23 27 discriminator 1
	addl	$1, -16(%rbp)
.L13:
	.loc 3 24 10 discriminator 2
	movl	-8(%rbp), %eax
	movslq	%eax, %rdx
	imulq	$1717986919, %rdx, %rdx
	shrq	$32, %rdx
	sarl	$2, %edx
	sarl	$31, %eax
	movl	%eax, %ecx
	movl	%edx, %eax
	subl	%ecx, %eax
	movl	%eax, -8(%rbp)
	.loc 3 24 17 discriminator 2
	movl	-4(%rbp), %eax
	movslq	%eax, %rdx
	imulq	$1717986919, %rdx, %rdx
	shrq	$32, %rdx
	sarl	$2, %edx
	sarl	$31, %eax
	movl	%eax, %ecx
	movl	%edx, %eax
	subl	%ecx, %eax
	movl	%eax, -4(%rbp)
	.loc 3 22 7 discriminator 2
	subl	$1, -12(%rbp)
.L12:
	.loc 3 22 52 discriminator 1
	cmpl	$0, -12(%rbp)
	jg	.L14
.LBE9:
	.loc 3 26 14
	movl	-16(%rbp), %eax
	.loc 3 27 5
	popq	%rbp
	.cfi_def_cfa 7, 8
	ret
	.cfi_endproc
.LFE1170:
	.size	_ZN8numLosse8wineRangEv, .-_ZN8numLosse8wineRangEv
	.globl	_ZN5Losse10nextLosNumE
	.bss
	.align 4
	.type	_ZN5Losse10nextLosNumE, @object
	.size	_ZN5Losse10nextLosNumE, 4
_ZN5Losse10nextLosNumE:
	.zero	4
	.globl	_ZN8numLosse6winNumE
	.align 4
	.type	_ZN8numLosse6winNumE, @object
	.size	_ZN8numLosse6winNumE, 4
_ZN8numLosse6winNumE:
	.zero	4
	.section	.rodata
.LC0:
	.string	"Franz"
.LC1:
	.string	"Xzaver"
	.text
	.globl	main
	.type	main, @function
main:
.LFB1171:
	.file 4 "main.cpp"
	.loc 4 7 39
	.cfi_startproc
	.cfi_personality 0x9b,DW.ref.__gxx_personality_v0
	.cfi_lsda 0x1b,.LLSDA1171
	endbr64
	pushq	%rbp
	.cfi_def_cfa_offset 16
	.cfi_offset 6, -16
	movq	%rsp, %rbp
	.cfi_def_cfa_register 6
	pushq	%r12
	pushq	%rbx
	subq	$96, %rsp
	.cfi_offset 12, -24
	.cfi_offset 3, -32
	movl	%edi, -100(%rbp)
	movq	%rsi, -112(%rbp)
	.loc 4 7 39
	movq	%fs:40, %rax
	movq	%rax, -24(%rbp)
	xorl	%eax, %eax
	.loc 4 8 43
	leaq	-81(%rbp), %rax
	movq	%rax, %rdi
	call	_ZNSaIcEC1Ev@PLT
	leaq	-81(%rbp), %rdx
	leaq	-64(%rbp), %rax
	leaq	.LC0(%rip), %rcx
	movq	%rcx, %rsi
	movq	%rax, %rdi
.LEHB3:
	call	_ZNSt7__cxx1112basic_stringIcSt11char_traitsIcESaIcEEC1IS3_EEPKcRKS3_
.LEHE3:
	.loc 4 8 43 is_stmt 0 discriminator 2
	leaq	-64(%rbp), %r12
	movl	$64, %edi
.LEHB4:
	call	_Znwm@PLT
.LEHE4:
	movq	%rax, %rbx
	movl	$1234567, %edx
	movq	%r12, %rsi
	movq	%rbx, %rdi
.LEHB5:
	call	_ZN8numLosseC1ENSt7__cxx1112basic_stringIcSt11char_traitsIcESaIcEEEi
.LEHE5:
	.loc 4 8 43 discriminator 6
	movq	%rbx, -80(%rbp)
	leaq	-64(%rbp), %rax
	movq	%rax, %rdi
	call	_ZNSt7__cxx1112basic_stringIcSt11char_traitsIcESaIcEED1Ev@PLT
	leaq	-81(%rbp), %rax
	movq	%rax, %rdi
	call	_ZNSaIcED1Ev@PLT
	.loc 4 8 81 is_stmt 1 discriminator 6
	leaq	-81(%rbp), %rax
	movq	%rax, %rdi
	call	_ZNSaIcEC1Ev@PLT
	leaq	-81(%rbp), %rdx
	leaq	-64(%rbp), %rax
	leaq	.LC1(%rip), %rcx
	movq	%rcx, %rsi
	movq	%rax, %rdi
.LEHB6:
	call	_ZNSt7__cxx1112basic_stringIcSt11char_traitsIcESaIcEEC1IS3_EEPKcRKS3_
.LEHE6:
	.loc 4 8 81 is_stmt 0 discriminator 8
	leaq	-64(%rbp), %r12
	movl	$64, %edi
.LEHB7:
	call	_Znwm@PLT
.LEHE7:
	movq	%rax, %rbx
	movl	$6666666, %edx
	movq	%r12, %rsi
	movq	%rbx, %rdi
.LEHB8:
	call	_ZN8numLosseC1ENSt7__cxx1112basic_stringIcSt11char_traitsIcESaIcEEEi
.LEHE8:
	.loc 4 8 81 discriminator 12
	movq	%rbx, -72(%rbp)
	leaq	-64(%rbp), %rax
	movq	%rax, %rdi
	call	_ZNSt7__cxx1112basic_stringIcSt11char_traitsIcESaIcEED1Ev@PLT
	leaq	-81(%rbp), %rax
	movq	%rax, %rdi
	call	_ZNSaIcED1Ev@PLT
	.loc 4 10 1 is_stmt 1 discriminator 12
	movl	$0, %eax
	movq	-24(%rbp), %rdx
	subq	%fs:40, %rdx
	je	.L24
	jmp	.L31
.L27:
	endbr64
	.loc 4 8 43
	movq	%rax, %r12
	movl	$64, %esi
	movq	%rbx, %rdi
	call	_ZdlPvm@PLT
	movq	%r12, %rbx
	jmp	.L19
.L26:
	endbr64
	movq	%rax, %rbx
.L19:
	.loc 4 8 43 is_stmt 0 discriminator 3
	leaq	-64(%rbp), %rax
	movq	%rax, %rdi
	call	_ZNSt7__cxx1112basic_stringIcSt11char_traitsIcESaIcEED1Ev@PLT
	jmp	.L20
.L25:
	endbr64
	.loc 4 8 43
	movq	%rax, %rbx
.L20:
	.loc 4 8 43 discriminator 1
	leaq	-81(%rbp), %rax
	movq	%rax, %rdi
	call	_ZNSaIcED1Ev@PLT
	movq	%rbx, %rax
	movq	%rax, %rdi
.LEHB9:
	call	_Unwind_Resume@PLT
.L30:
	endbr64
	.loc 4 8 81 is_stmt 1
	movq	%rax, %r12
	movl	$64, %esi
	movq	%rbx, %rdi
	call	_ZdlPvm@PLT
	movq	%r12, %rbx
	jmp	.L22
.L29:
	endbr64
	movq	%rax, %rbx
.L22:
	.loc 4 8 81 is_stmt 0 discriminator 9
	leaq	-64(%rbp), %rax
	movq	%rax, %rdi
	call	_ZNSt7__cxx1112basic_stringIcSt11char_traitsIcESaIcEED1Ev@PLT
	jmp	.L23
.L28:
	endbr64
	.loc 4 8 81
	movq	%rax, %rbx
.L23:
	.loc 4 8 81 discriminator 7
	leaq	-81(%rbp), %rax
	movq	%rax, %rdi
	call	_ZNSaIcED1Ev@PLT
	movq	%rbx, %rax
	movq	%rax, %rdi
	call	_Unwind_Resume@PLT
.LEHE9:
.L31:
	.loc 4 10 1 is_stmt 1
	call	__stack_chk_fail@PLT
.L24:
	addq	$96, %rsp
	popq	%rbx
	popq	%r12
	popq	%rbp
	.cfi_def_cfa 7, 8
	ret
	.cfi_endproc
.LFE1171:
	.section	.gcc_except_table,"a",@progbits
.LLSDA1171:
	.byte	0xff
	.byte	0xff
	.byte	0x1
	.uleb128 .LLSDACSE1171-.LLSDACSB1171
.LLSDACSB1171:
	.uleb128 .LEHB3-.LFB1171
	.uleb128 .LEHE3-.LEHB3
	.uleb128 .L25-.LFB1171
	.uleb128 0
	.uleb128 .LEHB4-.LFB1171
	.uleb128 .LEHE4-.LEHB4
	.uleb128 .L26-.LFB1171
	.uleb128 0
	.uleb128 .LEHB5-.LFB1171
	.uleb128 .LEHE5-.LEHB5
	.uleb128 .L27-.LFB1171
	.uleb128 0
	.uleb128 .LEHB6-.LFB1171
	.uleb128 .LEHE6-.LEHB6
	.uleb128 .L28-.LFB1171
	.uleb128 0
	.uleb128 .LEHB7-.LFB1171
	.uleb128 .LEHE7-.LEHB7
	.uleb128 .L29-.LFB1171
	.uleb128 0
	.uleb128 .LEHB8-.LFB1171
	.uleb128 .LEHE8-.LEHB8
	.uleb128 .L30-.LFB1171
	.uleb128 0
	.uleb128 .LEHB9-.LFB1171
	.uleb128 .LEHE9-.LEHB9
	.uleb128 0
	.uleb128 0
.LLSDACSE1171:
	.text
	.size	main, .-main
	.section	.text._ZN9__gnu_cxx11char_traitsIcE2eqERKcS3_,"axG",@progbits,_ZN9__gnu_cxx11char_traitsIcE2eqERKcS3_,comdat
	.weak	_ZN9__gnu_cxx11char_traitsIcE2eqERKcS3_
	.type	_ZN9__gnu_cxx11char_traitsIcE2eqERKcS3_, @function
_ZN9__gnu_cxx11char_traitsIcE2eqERKcS3_:
.LFB1173:
	.loc 1 106 7
	.cfi_startproc
	endbr64
	pushq	%rbp
	.cfi_def_cfa_offset 16
	.cfi_offset 6, -16
	movq	%rsp, %rbp
	.cfi_def_cfa_register 6
	movq	%rdi, -8(%rbp)
	movq	%rsi, -16(%rbp)
	.loc 1 107 21
	movq	-8(%rbp), %rax
	movzbl	(%rax), %edx
	movq	-16(%rbp), %rax
	movzbl	(%rax), %eax
	.loc 1 107 24
	cmpb	%al, %dl
	sete	%al
	.loc 1 107 30
	popq	%rbp
	.cfi_def_cfa 7, 8
	ret
	.cfi_endproc
.LFE1173:
	.size	_ZN9__gnu_cxx11char_traitsIcE2eqERKcS3_, .-_ZN9__gnu_cxx11char_traitsIcE2eqERKcS3_
	.section	.text._ZN9__gnu_cxx11char_traitsIcE6lengthEPKc,"axG",@progbits,_ZN9__gnu_cxx11char_traitsIcE6lengthEPKc,comdat
	.align 2
	.weak	_ZN9__gnu_cxx11char_traitsIcE6lengthEPKc
	.type	_ZN9__gnu_cxx11char_traitsIcE6lengthEPKc, @function
_ZN9__gnu_cxx11char_traitsIcE6lengthEPKc:
.LFB1172:
	.loc 1 167 5
	.cfi_startproc
	endbr64
	pushq	%rbp
	.cfi_def_cfa_offset 16
	.cfi_offset 6, -16
	movq	%rsp, %rbp
	.cfi_def_cfa_register 6
	subq	$48, %rsp
	movq	%rdi, -40(%rbp)
	.loc 1 167 5
	movq	%fs:40, %rax
	movq	%rax, -8(%rbp)
	xorl	%eax, %eax
	.loc 1 170 19
	movq	$0, -16(%rbp)
	.loc 1 171 7
	jmp	.L35
.L36:
	.loc 1 172 9
	addq	$1, -16(%rbp)
.L35:
	.loc 1 171 17
	movb	$0, -17(%rbp)
	.loc 1 171 21
	movq	-40(%rbp), %rdx
	movq	-16(%rbp), %rax
	addq	%rax, %rdx
	.loc 1 171 17
	leaq	-17(%rbp), %rax
	movq	%rax, %rsi
	movq	%rdx, %rdi
	call	_ZN9__gnu_cxx11char_traitsIcE2eqERKcS3_
	xorl	$1, %eax
	testb	%al, %al
	jne	.L36
	.loc 1 173 14
	movq	-16(%rbp), %rax
	.loc 1 174 5
	movq	-8(%rbp), %rdx
	subq	%fs:40, %rdx
	je	.L38
	call	__stack_chk_fail@PLT
.L38:
	leave
	.cfi_def_cfa 7, 8
	ret
	.cfi_endproc
.LFE1172:
	.size	_ZN9__gnu_cxx11char_traitsIcE6lengthEPKc, .-_ZN9__gnu_cxx11char_traitsIcE6lengthEPKc
	.section	.text._ZNSt7__cxx1112basic_stringIcSt11char_traitsIcESaIcEE12_Alloc_hiderD2Ev,"axG",@progbits,_ZNSt7__cxx1112basic_stringIcSt11char_traitsIcESaIcEE12_Alloc_hiderD5Ev,comdat
	.align 2
	.weak	_ZNSt7__cxx1112basic_stringIcSt11char_traitsIcESaIcEE12_Alloc_hiderD2Ev
	.type	_ZNSt7__cxx1112basic_stringIcSt11char_traitsIcESaIcEE12_Alloc_hiderD2Ev, @function
_ZNSt7__cxx1112basic_stringIcSt11char_traitsIcESaIcEE12_Alloc_hiderD2Ev:
.LFB1280:
	.file 5 "/usr/include/c++/11/bits/basic_string.h"
	.loc 5 158 14
	.cfi_startproc
	endbr64
	pushq	%rbp
	.cfi_def_cfa_offset 16
	.cfi_offset 6, -16
	movq	%rsp, %rbp
	.cfi_def_cfa_register 6
	subq	$16, %rsp
	movq	%rdi, -8(%rbp)
.LBB10:
	.loc 5 158 14
	movq	-8(%rbp), %rax
	movq	%rax, %rdi
	call	_ZNSaIcED2Ev@PLT
.LBE10:
	nop
	leave
	.cfi_def_cfa 7, 8
	ret
	.cfi_endproc
.LFE1280:
	.size	_ZNSt7__cxx1112basic_stringIcSt11char_traitsIcESaIcEE12_Alloc_hiderD2Ev, .-_ZNSt7__cxx1112basic_stringIcSt11char_traitsIcESaIcEE12_Alloc_hiderD2Ev
	.weak	_ZNSt7__cxx1112basic_stringIcSt11char_traitsIcESaIcEE12_Alloc_hiderD1Ev
	.set	_ZNSt7__cxx1112basic_stringIcSt11char_traitsIcESaIcEE12_Alloc_hiderD1Ev,_ZNSt7__cxx1112basic_stringIcSt11char_traitsIcESaIcEE12_Alloc_hiderD2Ev
	.section	.text._ZNSt7__cxx1112basic_stringIcSt11char_traitsIcESaIcEEC2IS3_EEPKcRKS3_,"axG",@progbits,_ZNSt7__cxx1112basic_stringIcSt11char_traitsIcESaIcEEC5IS3_EEPKcRKS3_,comdat
	.align 2
	.weak	_ZNSt7__cxx1112basic_stringIcSt11char_traitsIcESaIcEEC2IS3_EEPKcRKS3_
	.type	_ZNSt7__cxx1112basic_stringIcSt11char_traitsIcESaIcEEC2IS3_EEPKcRKS3_, @function
_ZNSt7__cxx1112basic_stringIcSt11char_traitsIcESaIcEEC2IS3_EEPKcRKS3_:
.LFB1430:
	.loc 5 533 7
	.cfi_startproc
	.cfi_personality 0x9b,DW.ref.__gxx_personality_v0
	.cfi_lsda 0x1b,.LLSDA1430
	endbr64
	pushq	%rbp
	.cfi_def_cfa_offset 16
	.cfi_offset 6, -16
	movq	%rsp, %rbp
	.cfi_def_cfa_register 6
	pushq	%rbx
	subq	$72, %rsp
	.cfi_offset 3, -24
	movq	%rdi, -56(%rbp)
	movq	%rsi, -64(%rbp)
	movq	%rdx, -72(%rbp)
	.loc 5 533 7
	movq	%fs:40, %rax
	movq	%rax, -24(%rbp)
	xorl	%eax, %eax
.LBB11:
	.loc 5 534 9
	movq	-56(%rbp), %rbx
	movq	-56(%rbp), %rax
	movq	%rax, %rdi
.LEHB10:
	call	_ZNSt7__cxx1112basic_stringIcSt11char_traitsIcESaIcEE13_M_local_dataEv@PLT
	movq	%rax, %rcx
	movq	-72(%rbp), %rax
	movq	%rax, %rdx
	movq	%rcx, %rsi
	movq	%rbx, %rdi
	call	_ZNSt7__cxx1112basic_stringIcSt11char_traitsIcESaIcEE12_Alloc_hiderC1EPcRKS3_@PLT
.LEHE10:
.LBB12:
	.loc 5 536 28
	cmpq	$0, -64(%rbp)
	je	.L41
	.loc 5 536 55 discriminator 1
	movq	-64(%rbp), %rax
	movq	%rax, %rdi
.LEHB11:
	call	_ZNSt11char_traitsIcE6lengthEPKc
	.loc 5 536 28 discriminator 1
	movq	-64(%rbp), %rdx
	addq	%rdx, %rax
	jmp	.L42
.L41:
	.loc 5 536 28 is_stmt 0 discriminator 2
	movl	$1, %eax
.L42:
	.loc 5 536 16 is_stmt 1 discriminator 5
	movq	%rax, -32(%rbp)
	.loc 5 539 14 discriminator 5
	movq	-32(%rbp), %rdx
	movq	-64(%rbp), %rcx
	movq	-56(%rbp), %rax
	movq	%rcx, %rsi
	movq	%rax, %rdi
	call	_ZNSt7__cxx1112basic_stringIcSt11char_traitsIcESaIcEE12_M_constructIPKcEEvT_S8_St20forward_iterator_tag
.LEHE11:
.LBE12:
.LBE11:
	.loc 5 540 7
	jmp	.L46
.L45:
	endbr64
.LBB13:
	movq	%rax, %rbx
	movq	-56(%rbp), %rax
	movq	%rax, %rdi
	call	_ZNSt7__cxx1112basic_stringIcSt11char_traitsIcESaIcEE12_Alloc_hiderD1Ev
	movq	%rbx, %rax
	movq	%rax, %rdi
.LEHB12:
	call	_Unwind_Resume@PLT
.LEHE12:
.L46:
.LBE13:
	movq	-24(%rbp), %rax
	subq	%fs:40, %rax
	je	.L44
	call	__stack_chk_fail@PLT
.L44:
	movq	-8(%rbp), %rbx
	leave
	.cfi_def_cfa 7, 8
	ret
	.cfi_endproc
.LFE1430:
	.section	.gcc_except_table
.LLSDA1430:
	.byte	0xff
	.byte	0xff
	.byte	0x1
	.uleb128 .LLSDACSE1430-.LLSDACSB1430
.LLSDACSB1430:
	.uleb128 .LEHB10-.LFB1430
	.uleb128 .LEHE10-.LEHB10
	.uleb128 0
	.uleb128 0
	.uleb128 .LEHB11-.LFB1430
	.uleb128 .LEHE11-.LEHB11
	.uleb128 .L45-.LFB1430
	.uleb128 0
	.uleb128 .LEHB12-.LFB1430
	.uleb128 .LEHE12-.LEHB12
	.uleb128 0
	.uleb128 0
.LLSDACSE1430:
	.section	.text._ZNSt7__cxx1112basic_stringIcSt11char_traitsIcESaIcEEC2IS3_EEPKcRKS3_,"axG",@progbits,_ZNSt7__cxx1112basic_stringIcSt11char_traitsIcESaIcEEC5IS3_EEPKcRKS3_,comdat
	.size	_ZNSt7__cxx1112basic_stringIcSt11char_traitsIcESaIcEEC2IS3_EEPKcRKS3_, .-_ZNSt7__cxx1112basic_stringIcSt11char_traitsIcESaIcEEC2IS3_EEPKcRKS3_
	.weak	_ZNSt7__cxx1112basic_stringIcSt11char_traitsIcESaIcEEC1IS3_EEPKcRKS3_
	.set	_ZNSt7__cxx1112basic_stringIcSt11char_traitsIcESaIcEEC1IS3_EEPKcRKS3_,_ZNSt7__cxx1112basic_stringIcSt11char_traitsIcESaIcEEC2IS3_EEPKcRKS3_
	.section	.text._ZSt8distanceIPKcENSt15iterator_traitsIT_E15difference_typeES3_S3_,"axG",@progbits,_ZSt8distanceIPKcENSt15iterator_traitsIT_E15difference_typeES3_S3_,comdat
	.weak	_ZSt8distanceIPKcENSt15iterator_traitsIT_E15difference_typeES3_S3_
	.type	_ZSt8distanceIPKcENSt15iterator_traitsIT_E15difference_typeES3_S3_, @function
_ZSt8distanceIPKcENSt15iterator_traitsIT_E15difference_typeES3_S3_:
.LFB1504:
	.file 6 "/usr/include/c++/11/bits/stl_iterator_base_funcs.h"
	.loc 6 138 5
	.cfi_startproc
	endbr64
	pushq	%rbp
	.cfi_def_cfa_offset 16
	.cfi_offset 6, -16
	movq	%rsp, %rbp
	.cfi_def_cfa_register 6
	subq	$16, %rsp
	movq	%rdi, -8(%rbp)
	movq	%rsi, -16(%rbp)
	.loc 6 142 33
	leaq	-8(%rbp), %rax
	movq	%rax, %rdi
	call	_ZSt19__iterator_categoryIPKcENSt15iterator_traitsIT_E17iterator_categoryERKS3_
	.loc 6 141 29
	movq	-8(%rbp), %rax
	movq	-16(%rbp), %rdx
	movq	%rdx, %rsi
	movq	%rax, %rdi
	call	_ZSt10__distanceIPKcENSt15iterator_traitsIT_E15difference_typeES3_S3_St26random_access_iterator_tag
	.loc 6 143 5
	leave
	.cfi_def_cfa 7, 8
	ret
	.cfi_endproc
.LFE1504:
	.size	_ZSt8distanceIPKcENSt15iterator_traitsIT_E15difference_typeES3_S3_, .-_ZSt8distanceIPKcENSt15iterator_traitsIT_E15difference_typeES3_S3_
	.section	.rodata
	.align 8
.LC2:
	.string	"basic_string::_M_construct null not valid"
	.section	.text._ZNSt7__cxx1112basic_stringIcSt11char_traitsIcESaIcEE12_M_constructIPKcEEvT_S8_St20forward_iterator_tag,"axG",@progbits,_ZNSt7__cxx1112basic_stringIcSt11char_traitsIcESaIcEE12_M_constructIPKcEEvT_S8_St20forward_iterator_tag,comdat
	.align 2
	.weak	_ZNSt7__cxx1112basic_stringIcSt11char_traitsIcESaIcEE12_M_constructIPKcEEvT_S8_St20forward_iterator_tag
	.type	_ZNSt7__cxx1112basic_stringIcSt11char_traitsIcESaIcEE12_M_constructIPKcEEvT_S8_St20forward_iterator_tag, @function
_ZNSt7__cxx1112basic_stringIcSt11char_traitsIcESaIcEE12_M_constructIPKcEEvT_S8_St20forward_iterator_tag:
.LFB1503:
	.file 7 "/usr/include/c++/11/bits/basic_string.tcc"
	.loc 7 206 7
	.cfi_startproc
	.cfi_personality 0x9b,DW.ref.__gxx_personality_v0
	.cfi_lsda 0x1b,.LLSDA1503
	endbr64
	pushq	%rbp
	.cfi_def_cfa_offset 16
	.cfi_offset 6, -16
	movq	%rsp, %rbp
	.cfi_def_cfa_register 6
	pushq	%rbx
	subq	$56, %rsp
	.cfi_offset 3, -24
	movq	%rdi, -40(%rbp)
	movq	%rsi, -48(%rbp)
	movq	%rdx, -56(%rbp)
	.loc 7 206 7
	movq	%fs:40, %rax
	movq	%rax, -24(%rbp)
	xorl	%eax, %eax
	.loc 7 211 34
	movq	-48(%rbp), %rax
	movq	%rax, %rdi
	call	_ZN9__gnu_cxx17__is_null_pointerIKcEEbPT_
	.loc 7 211 42
	testb	%al, %al
	je	.L50
	.loc 7 211 42 is_stmt 0 discriminator 1
	movq	-48(%rbp), %rax
	cmpq	-56(%rbp), %rax
	je	.L50
	.loc 7 211 42 discriminator 3
	movl	$1, %eax
	jmp	.L51
.L50:
	.loc 7 211 42 discriminator 4
	movl	$0, %eax
.L51:
	.loc 7 211 2 is_stmt 1 discriminator 6
	testb	%al, %al
	je	.L52
	.loc 7 212 28
	leaq	.LC2(%rip), %rax
	movq	%rax, %rdi
.LEHB13:
	call	_ZSt19__throw_logic_errorPKc@PLT
.L52:
	.loc 7 215 57
	movq	-56(%rbp), %rdx
	movq	-48(%rbp), %rax
	movq	%rdx, %rsi
	movq	%rax, %rdi
	call	_ZSt8distanceIPKcENSt15iterator_traitsIT_E15difference_typeES3_S3_
	.loc 7 215 12
	movq	%rax, -32(%rbp)
	.loc 7 217 13
	movq	-32(%rbp), %rax
	.loc 7 217 2
	cmpq	$15, %rax
	jbe	.L53
	.loc 7 219 13
	leaq	-32(%rbp), %rcx
	movq	-40(%rbp), %rax
	movl	$0, %edx
	movq	%rcx, %rsi
	movq	%rax, %rdi
	call	_ZNSt7__cxx1112basic_stringIcSt11char_traitsIcESaIcEE9_M_createERmm@PLT
	movq	%rax, %rdx
	movq	-40(%rbp), %rax
	movq	%rdx, %rsi
	movq	%rax, %rdi
	call	_ZNSt7__cxx1112basic_stringIcSt11char_traitsIcESaIcEE7_M_dataEPc@PLT
	.loc 7 220 17
	movq	-32(%rbp), %rdx
	movq	-40(%rbp), %rax
	movq	%rdx, %rsi
	movq	%rax, %rdi
	call	_ZNSt7__cxx1112basic_stringIcSt11char_traitsIcESaIcEE11_M_capacityEm@PLT
.LEHE13:
.L53:
	.loc 7 225 25
	movq	-40(%rbp), %rax
	movq	%rax, %rdi
.LEHB14:
	call	_ZNKSt7__cxx1112basic_stringIcSt11char_traitsIcESaIcEE7_M_dataEv@PLT
.LEHE14:
	movq	%rax, %rcx
	movq	-56(%rbp), %rdx
	movq	-48(%rbp), %rax
	movq	%rax, %rsi
	movq	%rcx, %rdi
	call	_ZNSt7__cxx1112basic_stringIcSt11char_traitsIcESaIcEE13_S_copy_charsEPcPKcS7_@PLT
	.loc 7 232 15
	movq	-32(%rbp), %rdx
	movq	-40(%rbp), %rax
	movq	%rdx, %rsi
	movq	%rax, %rdi
.LEHB15:
	call	_ZNSt7__cxx1112basic_stringIcSt11char_traitsIcESaIcEE13_M_set_lengthEm@PLT
.LEHE15:
	.loc 7 233 7
	nop
	movq	-24(%rbp), %rax
	subq	%fs:40, %rax
	je	.L56
	jmp	.L59
.L57:
	endbr64
	.loc 7 226 2
	movq	%rax, %rdi
	call	__cxa_begin_catch@PLT
	.loc 7 228 16
	movq	-40(%rbp), %rax
	movq	%rax, %rdi
.LEHB16:
	call	_ZNSt7__cxx1112basic_stringIcSt11char_traitsIcESaIcEE10_M_disposeEv@PLT
	.loc 7 229 6
	call	__cxa_rethrow@PLT
.LEHE16:
.L58:
	endbr64
	.loc 7 226 2
	movq	%rax, %rbx
	call	__cxa_end_catch@PLT
	movq	%rbx, %rax
	movq	%rax, %rdi
.LEHB17:
	call	_Unwind_Resume@PLT
.LEHE17:
.L59:
	.loc 7 233 7
	call	__stack_chk_fail@PLT
.L56:
	movq	-8(%rbp), %rbx
	leave
	.cfi_def_cfa 7, 8
	ret
	.cfi_endproc
.LFE1503:
	.section	.gcc_except_table
	.align 4
.LLSDA1503:
	.byte	0xff
	.byte	0x9b
	.uleb128 .LLSDATT1503-.LLSDATTD1503
.LLSDATTD1503:
	.byte	0x1
	.uleb128 .LLSDACSE1503-.LLSDACSB1503
.LLSDACSB1503:
	.uleb128 .LEHB13-.LFB1503
	.uleb128 .LEHE13-.LEHB13
	.uleb128 0
	.uleb128 0
	.uleb128 .LEHB14-.LFB1503
	.uleb128 .LEHE14-.LEHB14
	.uleb128 .L57-.LFB1503
	.uleb128 0x1
	.uleb128 .LEHB15-.LFB1503
	.uleb128 .LEHE15-.LEHB15
	.uleb128 0
	.uleb128 0
	.uleb128 .LEHB16-.LFB1503
	.uleb128 .LEHE16-.LEHB16
	.uleb128 .L58-.LFB1503
	.uleb128 0
	.uleb128 .LEHB17-.LFB1503
	.uleb128 .LEHE17-.LEHB17
	.uleb128 0
	.uleb128 0
.LLSDACSE1503:
	.byte	0x1
	.byte	0
	.align 4
	.long	0

.LLSDATT1503:
	.section	.text._ZNSt7__cxx1112basic_stringIcSt11char_traitsIcESaIcEE12_M_constructIPKcEEvT_S8_St20forward_iterator_tag,"axG",@progbits,_ZNSt7__cxx1112basic_stringIcSt11char_traitsIcESaIcEE12_M_constructIPKcEEvT_S8_St20forward_iterator_tag,comdat
	.size	_ZNSt7__cxx1112basic_stringIcSt11char_traitsIcESaIcEE12_M_constructIPKcEEvT_S8_St20forward_iterator_tag, .-_ZNSt7__cxx1112basic_stringIcSt11char_traitsIcESaIcEE12_M_constructIPKcEEvT_S8_St20forward_iterator_tag
	.section	.text._ZN9__gnu_cxx17__is_null_pointerIKcEEbPT_,"axG",@progbits,_ZN9__gnu_cxx17__is_null_pointerIKcEEbPT_,comdat
	.weak	_ZN9__gnu_cxx17__is_null_pointerIKcEEbPT_
	.type	_ZN9__gnu_cxx17__is_null_pointerIKcEEbPT_, @function
_ZN9__gnu_cxx17__is_null_pointerIKcEEbPT_:
.LFB1536:
	.file 8 "/usr/include/c++/11/ext/type_traits.h"
	.loc 8 152 5
	.cfi_startproc
	endbr64
	pushq	%rbp
	.cfi_def_cfa_offset 16
	.cfi_offset 6, -16
	movq	%rsp, %rbp
	.cfi_def_cfa_register 6
	movq	%rdi, -8(%rbp)
	.loc 8 153 23
	cmpq	$0, -8(%rbp)
	sete	%al
	.loc 8 153 26
	popq	%rbp
	.cfi_def_cfa 7, 8
	ret
	.cfi_endproc
.LFE1536:
	.size	_ZN9__gnu_cxx17__is_null_pointerIKcEEbPT_, .-_ZN9__gnu_cxx17__is_null_pointerIKcEEbPT_
	.section	.text._ZSt19__iterator_categoryIPKcENSt15iterator_traitsIT_E17iterator_categoryERKS3_,"axG",@progbits,_ZSt19__iterator_categoryIPKcENSt15iterator_traitsIT_E17iterator_categoryERKS3_,comdat
	.weak	_ZSt19__iterator_categoryIPKcENSt15iterator_traitsIT_E17iterator_categoryERKS3_
	.type	_ZSt19__iterator_categoryIPKcENSt15iterator_traitsIT_E17iterator_categoryERKS3_, @function
_ZSt19__iterator_categoryIPKcENSt15iterator_traitsIT_E17iterator_categoryERKS3_:
.LFB1537:
	.file 9 "/usr/include/c++/11/bits/stl_iterator_base_types.h"
	.loc 9 238 5
	.cfi_startproc
	endbr64
	pushq	%rbp
	.cfi_def_cfa_offset 16
	.cfi_offset 6, -16
	movq	%rsp, %rbp
	.cfi_def_cfa_register 6
	movq	%rdi, -8(%rbp)
	.loc 9 239 68
	popq	%rbp
	.cfi_def_cfa 7, 8
	ret
	.cfi_endproc
.LFE1537:
	.size	_ZSt19__iterator_categoryIPKcENSt15iterator_traitsIT_E17iterator_categoryERKS3_, .-_ZSt19__iterator_categoryIPKcENSt15iterator_traitsIT_E17iterator_categoryERKS3_
	.section	.text._ZSt10__distanceIPKcENSt15iterator_traitsIT_E15difference_typeES3_S3_St26random_access_iterator_tag,"axG",@progbits,_ZSt10__distanceIPKcENSt15iterator_traitsIT_E15difference_typeES3_S3_St26random_access_iterator_tag,comdat
	.weak	_ZSt10__distanceIPKcENSt15iterator_traitsIT_E15difference_typeES3_S3_St26random_access_iterator_tag
	.type	_ZSt10__distanceIPKcENSt15iterator_traitsIT_E15difference_typeES3_S3_St26random_access_iterator_tag, @function
_ZSt10__distanceIPKcENSt15iterator_traitsIT_E15difference_typeES3_S3_St26random_access_iterator_tag:
.LFB1538:
	.loc 6 98 5
	.cfi_startproc
	endbr64
	pushq	%rbp
	.cfi_def_cfa_offset 16
	.cfi_offset 6, -16
	movq	%rsp, %rbp
	.cfi_def_cfa_register 6
	movq	%rdi, -8(%rbp)
	movq	%rsi, -16(%rbp)
	.loc 6 104 23
	movq	-16(%rbp), %rax
	subq	-8(%rbp), %rax
	.loc 6 105 5
	popq	%rbp
	.cfi_def_cfa 7, 8
	ret
	.cfi_endproc
.LFE1538:
	.size	_ZSt10__distanceIPKcENSt15iterator_traitsIT_E15difference_typeES3_S3_St26random_access_iterator_tag, .-_ZSt10__distanceIPKcENSt15iterator_traitsIT_E15difference_typeES3_S3_St26random_access_iterator_tag
	.weak	_ZTV8numLosse
	.section	.data.rel.ro.local._ZTV8numLosse,"awG",@progbits,_ZTV8numLosse,comdat
	.align 8
	.type	_ZTV8numLosse, @object
	.size	_ZTV8numLosse, 24
_ZTV8numLosse:
	.quad	0
	.quad	_ZTI8numLosse
	.quad	_ZN8numLosse8wineRangEv
	.weak	_ZTV5Losse
	.section	.data.rel.ro._ZTV5Losse,"awG",@progbits,_ZTV5Losse,comdat
	.align 8
	.type	_ZTV5Losse, @object
	.size	_ZTV5Losse, 24
_ZTV5Losse:
	.quad	0
	.quad	_ZTI5Losse
	.quad	__cxa_pure_virtual
	.weak	_ZTI8numLosse
	.section	.data.rel.ro._ZTI8numLosse,"awG",@progbits,_ZTI8numLosse,comdat
	.align 8
	.type	_ZTI8numLosse, @object
	.size	_ZTI8numLosse, 24
_ZTI8numLosse:
	.quad	_ZTVN10__cxxabiv120__si_class_type_infoE+16
	.quad	_ZTS8numLosse
	.quad	_ZTI5Losse
	.weak	_ZTS8numLosse
	.section	.rodata._ZTS8numLosse,"aG",@progbits,_ZTS8numLosse,comdat
	.align 8
	.type	_ZTS8numLosse, @object
	.size	_ZTS8numLosse, 10
_ZTS8numLosse:
	.string	"8numLosse"
	.weak	_ZTI5Losse
	.section	.data.rel.ro._ZTI5Losse,"awG",@progbits,_ZTI5Losse,comdat
	.align 8
	.type	_ZTI5Losse, @object
	.size	_ZTI5Losse, 16
_ZTI5Losse:
	.quad	_ZTVN10__cxxabiv117__class_type_infoE+16
	.quad	_ZTS5Losse
	.weak	_ZTS5Losse
	.section	.rodata._ZTS5Losse,"aG",@progbits,_ZTS5Losse,comdat
	.type	_ZTS5Losse, @object
	.size	_ZTS5Losse, 7
_ZTS5Losse:
	.string	"5Losse"
	.weak	__cxa_pure_virtual
	.text
.Letext0:
	.file 10 "/usr/include/c++/11/type_traits"
	.file 11 "/usr/include/c++/11/bits/cpp_type_traits.h"
	.file 12 "/usr/include/c++/11/debug/debug.h"
	.file 13 "/usr/include/c++/11/cwchar"
	.file 14 "/usr/include/x86_64-linux-gnu/c++/11/bits/c++config.h"
	.file 15 "/usr/include/c++/11/cstdint"
	.file 16 "/usr/include/c++/11/bits/allocator.h"
	.file 17 "/usr/include/c++/11/clocale"
	.file 18 "/usr/include/c++/11/string_view"
	.file 19 "/usr/include/c++/11/cstdlib"
	.file 20 "/usr/include/c++/11/cstdio"
	.file 21 "/usr/include/c++/11/bits/alloc_traits.h"
	.file 22 "/usr/include/c++/11/initializer_list"
	.file 23 "/usr/include/c++/11/bits/stringfwd.h"
	.file 24 "/usr/include/c++/11/bits/functexcept.h"
	.file 25 "/usr/include/c++/11/bits/move.h"
	.file 26 "/usr/include/c++/11/bits/predefined_ops.h"
	.file 27 "/usr/include/c++/11/ext/new_allocator.h"
	.file 28 "/usr/include/c++/11/ext/alloc_traits.h"
	.file 29 "/usr/include/c++/11/bits/stl_iterator.h"
	.file 30 "/usr/lib/gcc/x86_64-linux-gnu/11/include/stddef.h"
	.file 31 "<built-in>"
	.file 32 "/usr/include/x86_64-linux-gnu/bits/types/wint_t.h"
	.file 33 "/usr/include/x86_64-linux-gnu/bits/types/__mbstate_t.h"
	.file 34 "/usr/include/x86_64-linux-gnu/bits/types/mbstate_t.h"
	.file 35 "/usr/include/x86_64-linux-gnu/bits/types/__FILE.h"
	.file 36 "/usr/include/x86_64-linux-gnu/bits/types/struct_FILE.h"
	.file 37 "/usr/include/x86_64-linux-gnu/bits/types/FILE.h"
	.file 38 "/usr/include/wchar.h"
	.file 39 "/usr/include/x86_64-linux-gnu/bits/types/struct_tm.h"
	.file 40 "/usr/include/x86_64-linux-gnu/bits/types.h"
	.file 41 "/usr/include/x86_64-linux-gnu/bits/stdint-intn.h"
	.file 42 "/usr/include/x86_64-linux-gnu/bits/stdint-uintn.h"
	.file 43 "/usr/include/stdint.h"
	.file 44 "/usr/include/locale.h"
	.file 45 "/usr/include/stdlib.h"
	.file 46 "/usr/include/x86_64-linux-gnu/bits/types/__fpos_t.h"
	.file 47 "/usr/include/stdio.h"
	.file 48 "/usr/include/c++/11/new"
	.section	.data.rel.local.DW.ref.__gxx_personality_v0,"awG",@progbits,DW.ref.__gxx_personality_v0,comdat
	.align 8
	.type	DW.ref.__gxx_personality_v0, @object
	.size	DW.ref.__gxx_personality_v0, 8
DW.ref.__gxx_personality_v0:
	.quad	__gxx_personality_v0
	.ident	"GCC: (Ubuntu 11.3.0-1ubuntu1~22.04) 11.3.0"
	.section	.note.GNU-stack,"",@progbits
	.section	.note.gnu.property,"a"
	.align 8
	.long	1f - 0f
	.long	4f - 1f
	.long	5
0:
	.string	"GNU"
1:
	.align 8
	.long	0xc0000002
	.long	3f - 2f
2:
	.long	0x3
3:
	.align 8
4:
